; Function Attrs: mustprogress uwtable
define hidden void @_ZN4cvc58internal11NodeBuilder30allocateNvIfNecessaryForAppendEv(ptr noundef nonnull align 8 dereferenceable(116) %this) local_unnamed_addr #3 align 2 {
entry:
  %d_nv.i = getelementptr inbounds i8, ptr %this, i64 96
  %0 = load ptr, ptr %d_nv.i, align 8
  %d_nchildren.i = getelementptr inbounds i8, ptr %0, i64 12
  %bf.load.i = load i32, ptr %d_nchildren.i, align 4
  %bf.clear.i = and i32 %bf.load.i, 67108863
  %d_nvMaxChildren.i = getelementptr inbounds i8, ptr %this, i64 112
  %1 = load i32, ptr %d_nvMaxChildren.i, align 8
  %cmp.i = icmp eq i32 %bf.clear.i, %1
  br i1 %cmp.i, label %if.then, label %if.end

if.then:                                          ; preds = %entry
  %2 = shl nuw nsw i32 %bf.clear.i, 1
  %3 = tail call i32 @llvm.umin.i32(i32 %2, i32 67108863)
  %cond.i = zext nneg i32 %3 to i64
  tail call void @_ZN4cvc58internal11NodeBuilder7reallocEm(ptr noundef nonnull align 8 dereferenceable(116) %this, i64 noundef %cond.i)
  br label %if.end

if.end:                                           ; preds = %if.then, %entry
  ret void
}